; Function Attrs: mustprogress nofree norecurse nosync nounwind willreturn memory(read, inaccessiblemem: none) uwtable
define internal fastcc { ptr, ptr } @_ZN12_GLOBAL__N_17NextLoc26VisitArrayParameterTypeLocEN5clang21ArrayParameterTypeLocE(ptr nocapture readonly %0, ptr %1) unnamed_addr #3 align 2 {
  %3 = getelementptr inbounds nuw i8, ptr %0, i64 32
  %.sroa.0.0.copyload.i.i.i = load i64, ptr %3, align 16
  %4 = ptrtoint ptr %1 to i64
  %5 = add i64 %4, 16
  %6 = tail call noundef i32 @_ZN5clang7TypeLoc24getLocalAlignmentForTypeENS_8QualTypeE(i64 %.sroa.0.0.copyload.i.i.i)
  %7 = icmp ne i64 %5, 0
  %8 = zext i1 %7 to i64
  %9 = sub i64 %5, %8
  %10 = zext nneg i32 %6 to i64
  %11 = udiv i64 %9, %10
  %12 = add i64 %11, %8
  %13 = mul i64 %12, %10
  %14 = inttoptr i64 %13 to ptr
  %15 = inttoptr i64 %.sroa.0.0.copyload.i.i.i to ptr
  %.fca.0.insert.i.i = insertvalue { ptr, ptr } poison, ptr %15, 0
  %.fca.1.insert.i.i = insertvalue { ptr, ptr } %.fca.0.insert.i.i, ptr %14, 1
  ret { ptr, ptr } %.fca.1.insert.i.i
}